target datalayout = "e-m:e-p270:32:32-p271:32:32-p272:64:64-i64:64-i128:128-f80:128-n8:16:32:64-S128"
target triple = "x86_64-pc-linux-gnu"

%struct.Tuplestorestate = type { i32, i32, i8, i8, i8, i8, i64, i64, i64, i64, ptr, ptr, ptr, ptr, ptr, ptr, ptr, i32, i32, i32, i8, ptr, i32, i32, i32, i32, i64 }
%struct.TSReadPointer = type { i32, i8, i32, i32, i64 }

@CurrentMemoryContext = external global ptr, align 8
@.str.7 = private unnamed_addr constant [18 x i8] c"tuplestore tuples\00", align 1
@CurrentResourceOwner = external global ptr, align 8

; Function Attrs: nounwind uwtable
define internal ptr @tuplestore_begin_common(i32 noundef %0, i1 noundef zeroext %1, i32 noundef %2) #0 {
  %4 = alloca i32, align 4
  %5 = alloca i8, align 1
  %6 = alloca i32, align 4
  %7 = alloca ptr, align 8
  store i32 %0, ptr %4, align 4
  %8 = zext i1 %1 to i8
  store i8 %8, ptr %5, align 1
  store i32 %2, ptr %6, align 4
  call void @llvm.lifetime.start.p0(i64 8, ptr %7) #7
  %9 = call ptr @palloc0(i64 noundef 152)
  store ptr %9, ptr %7, align 8
  %10 = load ptr, ptr %7, align 8
  %11 = getelementptr inbounds nuw %struct.Tuplestorestate, ptr %10, i32 0, i32 0
  store i32 0, ptr %11, align 8
  %12 = load i32, ptr %4, align 4
  %13 = load ptr, ptr %7, align 8
  %14 = getelementptr inbounds nuw %struct.Tuplestorestate, ptr %13, i32 0, i32 1
  store i32 %12, ptr %14, align 4
  %15 = load i8, ptr %5, align 1, !range !4, !noundef !5
  %16 = trunc i8 %15 to i1
  %17 = load ptr, ptr %7, align 8
  %18 = getelementptr inbounds nuw %struct.Tuplestorestate, ptr %17, i32 0, i32 3
  %19 = zext i1 %16 to i8
  store i8 %19, ptr %18, align 1
  %20 = load ptr, ptr %7, align 8
  %21 = getelementptr inbounds nuw %struct.Tuplestorestate, ptr %20, i32 0, i32 4
  store i8 0, ptr %21, align 2
  %22 = load ptr, ptr %7, align 8
  %23 = getelementptr inbounds nuw %struct.Tuplestorestate, ptr %22, i32 0, i32 5
  store i8 0, ptr %23, align 1
  %24 = load ptr, ptr %7, align 8
  %25 = getelementptr inbounds nuw %struct.Tuplestorestate, ptr %24, i32 0, i32 6
  store i64 0, ptr %25, align 8
  %26 = load i32, ptr %6, align 4
  %27 = sext i32 %26 to i64
  %28 = mul i64 %27, 1024
  %29 = load ptr, ptr %7, align 8
  %30 = getelementptr inbounds nuw %struct.Tuplestorestate, ptr %29, i32 0, i32 8
  store i64 %28, ptr %30, align 8
  %31 = load ptr, ptr %7, align 8
  %32 = getelementptr inbounds nuw %struct.Tuplestorestate, ptr %31, i32 0, i32 8
  %33 = load i64, ptr %32, align 8
  %34 = load ptr, ptr %7, align 8
  %35 = getelementptr inbounds nuw %struct.Tuplestorestate, ptr %34, i32 0, i32 7
  store i64 %33, ptr %35, align 8
  %36 = load ptr, ptr %7, align 8
  %37 = getelementptr inbounds nuw %struct.Tuplestorestate, ptr %36, i32 0, i32 10
  store ptr null, ptr %37, align 8
  %38 = load ptr, ptr @CurrentMemoryContext, align 8
  %39 = call ptr @GenerationContextCreate(ptr noundef %38, ptr noundef @.str.7, i64 noundef 0, i64 noundef 8192, i64 noundef 8388608)
  %40 = load ptr, ptr %7, align 8
  %41 = getelementptr inbounds nuw %struct.Tuplestorestate, ptr %40, i32 0, i32 11
  store ptr %39, ptr %41, align 8
  %42 = load ptr, ptr @CurrentResourceOwner, align 8
  %43 = load ptr, ptr %7, align 8
  %44 = getelementptr inbounds nuw %struct.Tuplestorestate, ptr %43, i32 0, i32 12
  store ptr %42, ptr %44, align 8
  %45 = load ptr, ptr %7, align 8
  %46 = getelementptr inbounds nuw %struct.Tuplestorestate, ptr %45, i32 0, i32 17
  store i32 0, ptr %46, align 8
  %47 = load ptr, ptr %7, align 8
  %48 = getelementptr inbounds nuw %struct.Tuplestorestate, ptr %47, i32 0, i32 18
  store i32 0, ptr %48, align 4
  %49 = load ptr, ptr %7, align 8
  %50 = getelementptr inbounds nuw %struct.Tuplestorestate, ptr %49, i32 0, i32 9
  store i64 0, ptr %50, align 8
  %51 = load ptr, ptr %7, align 8
  %52 = getelementptr inbounds nuw %struct.Tuplestorestate, ptr %51, i32 0, i32 19
  store i32 2048, ptr %52, align 8
  %53 = load ptr, ptr %7, align 8
  %54 = getelementptr inbounds nuw %struct.Tuplestorestate, ptr %53, i32 0, i32 20
  store i8 1, ptr %54, align 4
  %55 = load ptr, ptr %7, align 8
  %56 = getelementptr inbounds nuw %struct.Tuplestorestate, ptr %55, i32 0, i32 19
  %57 = load i32, ptr %56, align 8
  %58 = sext i32 %57 to i64
  %59 = mul i64 %58, 8
  %60 = call ptr @palloc(i64 noundef %59)
  %61 = load ptr, ptr %7, align 8
  %62 = getelementptr inbounds nuw %struct.Tuplestorestate, ptr %61, i32 0, i32 16
  store ptr %60, ptr %62, align 8
  %63 = load ptr, ptr %7, align 8
  %64 = getelementptr inbounds nuw %struct.Tuplestorestate, ptr %63, i32 0, i32 16
  %65 = load ptr, ptr %64, align 8
  %66 = call i64 @GetMemoryChunkSpace(ptr noundef %65)
  %67 = load ptr, ptr %7, align 8
  %68 = getelementptr inbounds nuw %struct.Tuplestorestate, ptr %67, i32 0, i32 7
  %69 = load i64, ptr %68, align 8
  %70 = sub i64 %69, %66
  store i64 %70, ptr %68, align 8
  %71 = load ptr, ptr %7, align 8
  %72 = getelementptr inbounds nuw %struct.Tuplestorestate, ptr %71, i32 0, i32 22
  store i32 0, ptr %72, align 8
  %73 = load ptr, ptr %7, align 8
  %74 = getelementptr inbounds nuw %struct.Tuplestorestate, ptr %73, i32 0, i32 23
  store i32 1, ptr %74, align 4
  %75 = load ptr, ptr %7, align 8
  %76 = getelementptr inbounds nuw %struct.Tuplestorestate, ptr %75, i32 0, i32 24
  store i32 8, ptr %76, align 8
  %77 = load ptr, ptr %7, align 8
  %78 = getelementptr inbounds nuw %struct.Tuplestorestate, ptr %77, i32 0, i32 24
  %79 = load i32, ptr %78, align 8
  %80 = sext i32 %79 to i64
  %81 = mul i64 %80, 24
  %82 = call ptr @palloc(i64 noundef %81)
  %83 = load ptr, ptr %7, align 8
  %84 = getelementptr inbounds nuw %struct.Tuplestorestate, ptr %83, i32 0, i32 21
  store ptr %82, ptr %84, align 8
  %85 = load i32, ptr %4, align 4
  %86 = load ptr, ptr %7, align 8
  %87 = getelementptr inbounds nuw %struct.Tuplestorestate, ptr %86, i32 0, i32 21
  %88 = load ptr, ptr %87, align 8
  %89 = getelementptr inbounds %struct.TSReadPointer, ptr %88, i64 0
  %90 = getelementptr inbounds nuw %struct.TSReadPointer, ptr %89, i32 0, i32 0
  store i32 %85, ptr %90, align 8
  %91 = load ptr, ptr %7, align 8
  %92 = getelementptr inbounds nuw %struct.Tuplestorestate, ptr %91, i32 0, i32 21
  %93 = load ptr, ptr %92, align 8
  %94 = getelementptr inbounds %struct.TSReadPointer, ptr %93, i64 0
  %95 = getelementptr inbounds nuw %struct.TSReadPointer, ptr %94, i32 0, i32 1
  store i8 0, ptr %95, align 4
  %96 = load ptr, ptr %7, align 8
  %97 = getelementptr inbounds nuw %struct.Tuplestorestate, ptr %96, i32 0, i32 21
  %98 = load ptr, ptr %97, align 8
  %99 = getelementptr inbounds %struct.TSReadPointer, ptr %98, i64 0
  %100 = getelementptr inbounds nuw %struct.TSReadPointer, ptr %99, i32 0, i32 2
  store i32 0, ptr %100, align 8
  %101 = load ptr, ptr %7, align 8
  call void @llvm.lifetime.end.p0(i64 8, ptr %7) #7
  ret ptr %101
}

; Function Attrs: nounwind uwtable
define dso_local ptr @tuplestore_begin_heap(i1 noundef zeroext %0, i1 noundef zeroext %1, i32 noundef %2) #0 {
  %4 = alloca i8, align 1
  %5 = alloca i8, align 1
  %6 = alloca i32, align 4
  %7 = alloca ptr, align 8
  %8 = alloca i32, align 4
  %9 = zext i1 %0 to i8
  store i8 %9, ptr %4, align 1
  %10 = zext i1 %1 to i8
  store i8 %10, ptr %5, align 1
  store i32 %2, ptr %6, align 4
  call void @llvm.lifetime.start.p0(i64 8, ptr %7) #7
  call void @llvm.lifetime.start.p0(i64 4, ptr %8) #7
  %11 = load i8, ptr %4, align 1, !range !4, !noundef !5
  %12 = trunc i8 %11 to i1
  %13 = select i1 %12, i32 12, i32 4
  store i32 %13, ptr %8, align 4
  %14 = load i32, ptr %8, align 4
  %15 = load i8, ptr %5, align 1, !range !4, !noundef !5
  %16 = trunc i8 %15 to i1
  %17 = load i32, ptr %6, align 4
  %18 = call ptr @tuplestore_begin_common(i32 noundef %14, i1 noundef zeroext %16, i32 noundef %17)
  store ptr %18, ptr %7, align 8
  %19 = load ptr, ptr %7, align 8
  %20 = getelementptr inbounds nuw %struct.Tuplestorestate, ptr %19, i32 0, i32 13
  store ptr @copytup_heap, ptr %20, align 8
  %21 = load ptr, ptr %7, align 8
  %22 = getelementptr inbounds nuw %struct.Tuplestorestate, ptr %21, i32 0, i32 14
  store ptr @writetup_heap, ptr %22, align 8
  %23 = load ptr, ptr %7, align 8
  %24 = getelementptr inbounds nuw %struct.Tuplestorestate, ptr %23, i32 0, i32 15
  store ptr @readtup_heap, ptr %24, align 8
  %25 = load ptr, ptr %7, align 8
  call void @llvm.lifetime.end.p0(i64 4, ptr %8) #7
  call void @llvm.lifetime.end.p0(i64 8, ptr %7) #7
  ret ptr %25
}