; Function Attrs: nounwind uwtable
define dso_local noundef ptr @tuplestore_begin_heap(i1 noundef zeroext %0, i1 noundef zeroext %1, i32 noundef %2) local_unnamed_addr #0 {
  %4 = select i1 %0, i32 12, i32 4
  %5 = zext i1 %1 to i8
  %6 = tail call ptr @palloc0(i64 noundef 152) #9
  store i32 0, ptr %6, align 8
  %7 = getelementptr inbounds nuw i8, ptr %6, i64 4
  store i32 %4, ptr %7, align 4
  %8 = getelementptr inbounds nuw i8, ptr %6, i64 9
  store i8 %5, ptr %8, align 1
  %9 = getelementptr inbounds nuw i8, ptr %6, i64 10
  store i8 0, ptr %9, align 2
  %10 = getelementptr inbounds nuw i8, ptr %6, i64 11
  store i8 0, ptr %10, align 1
  %11 = getelementptr inbounds nuw i8, ptr %6, i64 16
  store i64 0, ptr %11, align 8
  %12 = sext i32 %2 to i64
  %13 = shl nsw i64 %12, 10
  %14 = getelementptr inbounds nuw i8, ptr %6, i64 32
  store i64 %13, ptr %14, align 8
  %15 = getelementptr inbounds nuw i8, ptr %6, i64 24
  store i64 %13, ptr %15, align 8
  %16 = getelementptr inbounds nuw i8, ptr %6, i64 48
  store ptr null, ptr %16, align 8
  %17 = load ptr, ptr @CurrentMemoryContext, align 8
  %18 = tail call ptr @GenerationContextCreate(ptr noundef %17, ptr noundef nonnull @.str.7, i64 noundef 0, i64 noundef 8192, i64 noundef 8388608) #9
  %19 = getelementptr inbounds nuw i8, ptr %6, i64 56
  store ptr %18, ptr %19, align 8
  %20 = load ptr, ptr @CurrentResourceOwner, align 8
  %21 = getelementptr inbounds nuw i8, ptr %6, i64 64
  store ptr %20, ptr %21, align 8
  %22 = getelementptr inbounds nuw i8, ptr %6, i64 104
  store i32 0, ptr %22, align 8
  %23 = getelementptr inbounds nuw i8, ptr %6, i64 108
  store i32 0, ptr %23, align 4
  %24 = getelementptr inbounds nuw i8, ptr %6, i64 40
  store i64 0, ptr %24, align 8
  %25 = getelementptr inbounds nuw i8, ptr %6, i64 112
  store i32 2048, ptr %25, align 8
  %26 = getelementptr inbounds nuw i8, ptr %6, i64 116
  store i8 1, ptr %26, align 4
  %27 = tail call ptr @palloc(i64 noundef 16384) #9
  %28 = getelementptr inbounds nuw i8, ptr %6, i64 96
  store ptr %27, ptr %28, align 8
  %29 = tail call i64 @GetMemoryChunkSpace(ptr noundef %27) #9
  %30 = load i64, ptr %15, align 8
  %31 = sub i64 %30, %29
  store i64 %31, ptr %15, align 8
  %32 = getelementptr inbounds nuw i8, ptr %6, i64 128
  store i32 0, ptr %32, align 8
  %33 = getelementptr inbounds nuw i8, ptr %6, i64 132
  store i32 1, ptr %33, align 4
  %34 = getelementptr inbounds nuw i8, ptr %6, i64 136
  store i32 8, ptr %34, align 8
  %35 = tail call ptr @palloc(i64 noundef 192) #9
  %36 = getelementptr inbounds nuw i8, ptr %6, i64 120
  store ptr %35, ptr %36, align 8
  store i32 %4, ptr %35, align 8
  %37 = load ptr, ptr %36, align 8
  %38 = getelementptr inbounds nuw i8, ptr %37, i64 4
  store i8 0, ptr %38, align 4
  %39 = load ptr, ptr %36, align 8
  %40 = getelementptr inbounds nuw i8, ptr %39, i64 8
  store i32 0, ptr %40, align 8
  %41 = getelementptr inbounds nuw i8, ptr %6, i64 72
  store ptr @copytup_heap, ptr %41, align 8
  %42 = getelementptr inbounds nuw i8, ptr %6, i64 80
  store ptr @writetup_heap, ptr %42, align 8
  %43 = getelementptr inbounds nuw i8, ptr %6, i64 88
  store ptr @readtup_heap, ptr %43, align 8
  ret ptr %6
}